; Function Attrs: mustprogress nofree norecurse nosync nounwind willreturn memory(argmem: readwrite) uwtable
define dso_local void @_Z19setLinearAndAngularRK9b3Vector3S1_S1_PS_S2_S2_(ptr nocapture noundef nonnull readonly align 16 dereferenceable(16) %n, ptr nocapture noundef nonnull readonly align 16 dereferenceable(16) %r0, ptr nocapture noundef nonnull readonly align 16 dereferenceable(16) %r1, ptr nocapture noundef writeonly %linear, ptr nocapture noundef writeonly %angular0, ptr nocapture noundef writeonly %angular1) local_unnamed_addr #2 {
entry:
  %0 = load <4 x float>, ptr %n, align 16
  %y = getelementptr inbounds i8, ptr %n, i64 4
  %1 = extractelement <4 x float> %0, i64 2
  %retval.sroa.0.4.vec.insert.i = shufflevector <4 x float> %0, <4 x float> poison, <2 x i32> <i32 0, i32 1>
  %retval.sroa.3.12.vec.insert.i = insertelement <2 x float> <float poison, float 0.000000e+00>, float %1, i64 0
  store <2 x float> %retval.sroa.0.4.vec.insert.i, ptr %linear, align 16
  %ref.tmp.sroa.2.0..sroa_idx = getelementptr inbounds i8, ptr %linear, i64 8
  store <2 x float> %retval.sroa.3.12.vec.insert.i, ptr %ref.tmp.sroa.2.0..sroa_idx, align 8
  %arrayidx.i.i = getelementptr inbounds i8, ptr %r0, i64 4
  %2 = load float, ptr %n, align 16
  %3 = load float, ptr %r0, align 16
  %4 = load <2 x float>, ptr %arrayidx.i.i, align 4
  %5 = load <2 x float>, ptr %y, align 4
  %6 = shufflevector <2 x float> %4, <2 x float> poison, <2 x i32> <i32 1, i32 poison>
  %7 = insertelement <2 x float> %6, float %3, i64 1
  %8 = fneg <2 x float> %7
  %9 = fmul <2 x float> %5, %8
  %10 = shufflevector <2 x float> %5, <2 x float> poison, <2 x i32> <i32 1, i32 poison>
  %11 = insertelement <2 x float> %10, float %2, i64 1
  %12 = tail call <2 x float> @llvm.fmuladd.v2f32(<2 x float> %4, <2 x float> %11, <2 x float> %9)
  %13 = extractelement <2 x float> %4, i64 0
  %14 = fneg float %13
  %neg17.i.i = fmul float %2, %14
  %15 = extractelement <2 x float> %5, i64 0
  %16 = tail call float @llvm.fmuladd.f32(float %3, float %15, float %neg17.i.i)
  %retval.sroa.3.12.vec.insert.i.i.i = insertelement <2 x float> <float poison, float 0.000000e+00>, float %16, i64 0
  store <2 x float> %12, ptr %angular0, align 16
  %ref.tmp2.sroa.2.0..sroa_idx = getelementptr inbounds i8, ptr %angular0, i64 8
  store <2 x float> %retval.sroa.3.12.vec.insert.i.i.i, ptr %ref.tmp2.sroa.2.0..sroa_idx, align 8
  %arrayidx.i.i5 = getelementptr inbounds i8, ptr %r1, i64 4
  %17 = load float, ptr %n, align 16
  %18 = load float, ptr %r1, align 16
  %19 = load <2 x float>, ptr %arrayidx.i.i5, align 4
  %20 = load <2 x float>, ptr %y, align 4
  %21 = shufflevector <2 x float> %19, <2 x float> poison, <2 x i32> <i32 1, i32 poison>
  %22 = insertelement <2 x float> %21, float %18, i64 1
  %23 = fneg <2 x float> %22
  %24 = fmul <2 x float> %20, %23
  %25 = shufflevector <2 x float> %20, <2 x float> poison, <2 x i32> <i32 1, i32 poison>
  %26 = insertelement <2 x float> %25, float %17, i64 1
  %27 = tail call <2 x float> @llvm.fmuladd.v2f32(<2 x float> %19, <2 x float> %26, <2 x float> %24)
  %28 = extractelement <2 x float> %19, i64 0
  %29 = fneg float %28
  %neg17.i.i11 = fmul float %17, %29
  %30 = extractelement <2 x float> %20, i64 0
  %31 = tail call float @llvm.fmuladd.f32(float %18, float %30, float %neg17.i.i11)
  %32 = fneg <2 x float> %27
  %fneg4.i = fneg float %31
  %retval.sroa.3.12.vec.insert.i.i = insertelement <2 x float> <float poison, float 0.000000e+00>, float %fneg4.i, i64 0
  store <2 x float> %32, ptr %angular1, align 16
  %ref.tmp6.sroa.2.0..sroa_idx = getelementptr inbounds i8, ptr %angular1, i64 8
  store <2 x float> %retval.sroa.3.12.vec.insert.i.i, ptr %ref.tmp6.sroa.2.0..sroa_idx, align 8
  ret void
}